target datalayout = "e-m:e-p270:32:32-p271:32:32-p272:64:64-i64:64-i128:128-f80:128-n8:16:32:64-S128"
target triple = "x86_64-pc-linux-gnu"

%struct.blake2b_ctx_st = type { [8 x i64], [2 x i64], [2 x i64], [128 x i8], i64, i64 }

; Function Attrs: nounwind uwtable
define i32 @ossl_blake2b_update(ptr noundef %0, ptr noundef %1, i64 noundef %2) #0 {
  %4 = alloca ptr, align 8
  %5 = alloca ptr, align 8
  %6 = alloca i64, align 8
  %7 = alloca ptr, align 8
  %8 = alloca i64, align 8
  %9 = alloca i64, align 8
  store ptr %0, ptr %4, align 8, !tbaa !22
  store ptr %1, ptr %5, align 8, !tbaa !28
  store i64 %2, ptr %6, align 8, !tbaa !19
  call void @llvm.lifetime.start.p0(i64 8, ptr %7) #6
  %10 = load ptr, ptr %5, align 8, !tbaa !28
  store ptr %10, ptr %7, align 8, !tbaa !15
  call void @llvm.lifetime.start.p0(i64 8, ptr %8) #6
  %11 = load ptr, ptr %4, align 8, !tbaa !22
  %12 = getelementptr inbounds nuw %struct.blake2b_ctx_st, ptr %11, i32 0, i32 4
  %13 = load i64, ptr %12, align 8, !tbaa !29
  %14 = sub i64 128, %13
  store i64 %14, ptr %8, align 8, !tbaa !19
  %15 = load i64, ptr %6, align 8, !tbaa !19
  %16 = load i64, ptr %8, align 8, !tbaa !19
  %17 = icmp ugt i64 %15, %16
  br i1 %17, label %18, label %69

18:                                               ; preds = %3
  %19 = load ptr, ptr %4, align 8, !tbaa !22
  %20 = getelementptr inbounds nuw %struct.blake2b_ctx_st, ptr %19, i32 0, i32 4
  %21 = load i64, ptr %20, align 8, !tbaa !29
  %22 = icmp ne i64 %21, 0
  br i1 %22, label %23, label %45

23:                                               ; preds = %18
  %24 = load ptr, ptr %4, align 8, !tbaa !22
  %25 = getelementptr inbounds nuw %struct.blake2b_ctx_st, ptr %24, i32 0, i32 3
  %26 = getelementptr inbounds [128 x i8], ptr %25, i64 0, i64 0
  %27 = load ptr, ptr %4, align 8, !tbaa !22
  %28 = getelementptr inbounds nuw %struct.blake2b_ctx_st, ptr %27, i32 0, i32 4
  %29 = load i64, ptr %28, align 8, !tbaa !29
  %30 = getelementptr inbounds nuw i8, ptr %26, i64 %29
  %31 = load ptr, ptr %7, align 8, !tbaa !15
  %32 = load i64, ptr %8, align 8, !tbaa !19
  call void @llvm.memcpy.p0.p0.i64(ptr align 1 %30, ptr align 1 %31, i64 %32, i1 false)
  %33 = load ptr, ptr %4, align 8, !tbaa !22
  %34 = load ptr, ptr %4, align 8, !tbaa !22
  %35 = getelementptr inbounds nuw %struct.blake2b_ctx_st, ptr %34, i32 0, i32 3
  %36 = getelementptr inbounds [128 x i8], ptr %35, i64 0, i64 0
  call void @blake2b_compress(ptr noundef %33, ptr noundef %36, i64 noundef 128)
  %37 = load ptr, ptr %4, align 8, !tbaa !22
  %38 = getelementptr inbounds nuw %struct.blake2b_ctx_st, ptr %37, i32 0, i32 4
  store i64 0, ptr %38, align 8, !tbaa !29
  %39 = load i64, ptr %8, align 8, !tbaa !19
  %40 = load ptr, ptr %7, align 8, !tbaa !15
  %41 = getelementptr inbounds nuw i8, ptr %40, i64 %39
  store ptr %41, ptr %7, align 8, !tbaa !15
  %42 = load i64, ptr %8, align 8, !tbaa !19
  %43 = load i64, ptr %6, align 8, !tbaa !19
  %44 = sub i64 %43, %42
  store i64 %44, ptr %6, align 8, !tbaa !19
  br label %45

45:                                               ; preds = %23, %18
  %46 = load i64, ptr %6, align 8, !tbaa !19
  %47 = icmp ugt i64 %46, 128
  br i1 %47, label %48, label %68

48:                                               ; preds = %45
  call void @llvm.lifetime.start.p0(i64 8, ptr %9) #6
  %49 = load i64, ptr %6, align 8, !tbaa !19
  %50 = urem i64 %49, 128
  store i64 %50, ptr %9, align 8, !tbaa !19
  %51 = load i64, ptr %9, align 8, !tbaa !19
  %52 = icmp ne i64 %51, 0
  br i1 %52, label %53, label %55

53:                                               ; preds = %48
  %54 = load i64, ptr %9, align 8, !tbaa !19
  br label %56

55:                                               ; preds = %48
  br label %56

56:                                               ; preds = %55, %53
  %57 = phi i64 [ %54, %53 ], [ 128, %55 ]
  store i64 %57, ptr %9, align 8, !tbaa !19
  %58 = load i64, ptr %9, align 8, !tbaa !19
  %59 = load i64, ptr %6, align 8, !tbaa !19
  %60 = sub i64 %59, %58
  store i64 %60, ptr %6, align 8, !tbaa !19
  %61 = load ptr, ptr %4, align 8, !tbaa !22
  %62 = load ptr, ptr %7, align 8, !tbaa !15
  %63 = load i64, ptr %6, align 8, !tbaa !19
  call void @blake2b_compress(ptr noundef %61, ptr noundef %62, i64 noundef %63)
  %64 = load i64, ptr %6, align 8, !tbaa !19
  %65 = load ptr, ptr %7, align 8, !tbaa !15
  %66 = getelementptr inbounds nuw i8, ptr %65, i64 %64
  store ptr %66, ptr %7, align 8, !tbaa !15
  %67 = load i64, ptr %9, align 8, !tbaa !19
  store i64 %67, ptr %6, align 8, !tbaa !19
  call void @llvm.lifetime.end.p0(i64 8, ptr %9) #6
  br label %68

68:                                               ; preds = %56, %45
  br label %69

69:                                               ; preds = %68, %3
  %70 = load ptr, ptr %4, align 8, !tbaa !22
  %71 = getelementptr inbounds nuw %struct.blake2b_ctx_st, ptr %70, i32 0, i32 3
  %72 = getelementptr inbounds [128 x i8], ptr %71, i64 0, i64 0
  %73 = load ptr, ptr %4, align 8, !tbaa !22
  %74 = getelementptr inbounds nuw %struct.blake2b_ctx_st, ptr %73, i32 0, i32 4
  %75 = load i64, ptr %74, align 8, !tbaa !29
  %76 = getelementptr inbounds nuw i8, ptr %72, i64 %75
  %77 = load ptr, ptr %7, align 8, !tbaa !15
  %78 = load i64, ptr %6, align 8, !tbaa !19
  call void @llvm.memcpy.p0.p0.i64(ptr align 1 %76, ptr align 1 %77, i64 %78, i1 false)
  %79 = load i64, ptr %6, align 8, !tbaa !19
  %80 = load ptr, ptr %4, align 8, !tbaa !22
  %81 = getelementptr inbounds nuw %struct.blake2b_ctx_st, ptr %80, i32 0, i32 4
  %82 = load i64, ptr %81, align 8, !tbaa !29
  %83 = add i64 %82, %79
  store i64 %83, ptr %81, align 8, !tbaa !29
  call void @llvm.lifetime.end.p0(i64 8, ptr %8) #6
  call void @llvm.lifetime.end.p0(i64 8, ptr %7) #6
  ret i32 1
}