; Function Attrs: nofree norecurse nosync nounwind memory(argmem: readwrite) uwtable
define noundef i32 @ossl_blake2b_update(ptr noundef captures(none) %0, ptr noundef readonly captures(none) %1, i64 noundef %2) local_unnamed_addr #4 {
  %4 = getelementptr inbounds nuw i8, ptr %0, i64 224
  %5 = load i64, ptr %4, align 8, !tbaa !16
  %6 = sub i64 128, %5
  %7 = icmp ugt i64 %2, %6
  br i1 %7, label %8, label %21

8:                                                ; preds = %3
  %.not = icmp eq i64 %5, 0
  br i1 %.not, label %14, label %9

9:                                                ; preds = %8
  %10 = getelementptr inbounds nuw i8, ptr %0, i64 96
  %11 = getelementptr inbounds nuw i8, ptr %10, i64 %5
  tail call void @llvm.memcpy.p0.p0.i64(ptr nonnull align 1 %11, ptr align 1 %1, i64 %6, i1 false)
  tail call fastcc void @blake2b_compress(ptr noundef nonnull %0, ptr noundef nonnull %10, i64 noundef 128)
  store i64 0, ptr %4, align 8, !tbaa !16
  %12 = getelementptr inbounds nuw i8, ptr %1, i64 %6
  %13 = sub i64 %2, %6
  br label %14

14:                                               ; preds = %9, %8
  %.134 = phi ptr [ %12, %9 ], [ %1, %8 ]
  %.1 = phi i64 [ %13, %9 ], [ %2, %8 ]
  %15 = icmp ugt i64 %.1, 128
  br i1 %15, label %16, label %21

16:                                               ; preds = %14
  %17 = and i64 %.1, 127
  %.not39 = icmp eq i64 %17, 0
  %18 = select i1 %.not39, i64 128, i64 %17
  %19 = sub nuw i64 %.1, %18
  tail call fastcc void @blake2b_compress(ptr noundef nonnull %0, ptr noundef %.134, i64 noundef %19)
  %20 = getelementptr inbounds nuw i8, ptr %.134, i64 %19
  %.pre = load i64, ptr %4, align 8, !tbaa !16
  br label %21

21:                                               ; preds = %14, %16, %3
  %22 = phi i64 [ %.pre, %16 ], [ 0, %14 ], [ %5, %3 ]
  %.033 = phi ptr [ %20, %16 ], [ %.134, %14 ], [ %1, %3 ]
  %.0 = phi i64 [ %18, %16 ], [ %.1, %14 ], [ %2, %3 ]
  %23 = getelementptr inbounds nuw i8, ptr %0, i64 96
  %24 = getelementptr inbounds nuw i8, ptr %23, i64 %22
  tail call void @llvm.memcpy.p0.p0.i64(ptr nonnull align 1 %24, ptr align 1 %.033, i64 %.0, i1 false)
  %25 = load i64, ptr %4, align 8, !tbaa !16
  %26 = add i64 %25, %.0
  store i64 %26, ptr %4, align 8, !tbaa !16
  ret i32 1
}